target datalayout = "e-m:e-p270:32:32-p271:32:32-p272:64:64-i64:64-i128:128-f80:128-n8:16:32:64-S128"
target triple = "x86_64-pc-linux-gnu"

%struct._lv_vector_path_t = type { i32, %struct._lv_array_t, %struct._lv_array_t }
%struct._lv_array_t = type { ptr, i32, i32, i32, i8 }

; Function Attrs: nounwind uwtable
define void @lv_vector_path_line_to(ptr noundef %0, ptr noundef %1) #0 {
  %3 = alloca ptr, align 8
  %4 = alloca ptr, align 8
  %5 = alloca i32, align 4
  store ptr %0, ptr %3, align 8, !tbaa !3
  store ptr %1, ptr %4, align 8, !tbaa !3
  %6 = load ptr, ptr %3, align 8, !tbaa !3
  %7 = getelementptr inbounds nuw %struct._lv_vector_path_t, ptr %6, i32 0, i32 1
  %8 = call zeroext i1 @lv_array_is_empty(ptr noundef %7)
  br i1 %8, label %9, label %10

9:                                                ; preds = %2
  br label %56

10:                                               ; preds = %2
  br label %11

11:                                               ; preds = %10
  %12 = load ptr, ptr %3, align 8, !tbaa !3
  %13 = getelementptr inbounds nuw %struct._lv_vector_path_t, ptr %12, i32 0, i32 1
  %14 = call i32 @lv_array_size(ptr noundef %13)
  %15 = add i32 %14, 1
  %16 = load ptr, ptr %3, align 8, !tbaa !3
  %17 = getelementptr inbounds nuw %struct._lv_vector_path_t, ptr %16, i32 0, i32 1
  %18 = call i32 @lv_array_capacity(ptr noundef %17)
  %19 = icmp ugt i32 %15, %18
  br i1 %19, label %20, label %29

20:                                               ; preds = %11
  %21 = load ptr, ptr %3, align 8, !tbaa !3
  %22 = getelementptr inbounds nuw %struct._lv_vector_path_t, ptr %21, i32 0, i32 1
  %23 = load ptr, ptr %3, align 8, !tbaa !3
  %24 = getelementptr inbounds nuw %struct._lv_vector_path_t, ptr %23, i32 0, i32 1
  %25 = getelementptr inbounds nuw %struct._lv_array_t, ptr %24, i32 0, i32 2
  %26 = load i32, ptr %25, align 4, !tbaa !22
  %27 = shl i32 %26, 1
  %28 = call zeroext i1 @lv_array_resize(ptr noundef %22, i32 noundef %27)
  br label %29

29:                                               ; preds = %20, %11
  %30 = load ptr, ptr %3, align 8, !tbaa !3
  %31 = getelementptr inbounds nuw %struct._lv_vector_path_t, ptr %30, i32 0, i32 2
  %32 = call i32 @lv_array_size(ptr noundef %31)
  %33 = add i32 %32, 1
  %34 = load ptr, ptr %3, align 8, !tbaa !3
  %35 = getelementptr inbounds nuw %struct._lv_vector_path_t, ptr %34, i32 0, i32 2
  %36 = call i32 @lv_array_capacity(ptr noundef %35)
  %37 = icmp ugt i32 %33, %36
  br i1 %37, label %38, label %47

38:                                               ; preds = %29
  %39 = load ptr, ptr %3, align 8, !tbaa !3
  %40 = getelementptr inbounds nuw %struct._lv_vector_path_t, ptr %39, i32 0, i32 2
  %41 = load ptr, ptr %3, align 8, !tbaa !3
  %42 = getelementptr inbounds nuw %struct._lv_vector_path_t, ptr %41, i32 0, i32 2
  %43 = getelementptr inbounds nuw %struct._lv_array_t, ptr %42, i32 0, i32 2
  %44 = load i32, ptr %43, align 4, !tbaa !23
  %45 = shl i32 %44, 1
  %46 = call zeroext i1 @lv_array_resize(ptr noundef %40, i32 noundef %45)
  br label %47

47:                                               ; preds = %38, %29
  br label %48

48:                                               ; preds = %47
  call void @llvm.lifetime.start.p0(i64 4, ptr %5) #7
  store i32 1, ptr %5, align 4, !tbaa !12
  %49 = load ptr, ptr %3, align 8, !tbaa !3
  %50 = getelementptr inbounds nuw %struct._lv_vector_path_t, ptr %49, i32 0, i32 1
  %51 = call i32 @lv_array_push_back(ptr noundef %50, ptr noundef %5)
  %52 = load ptr, ptr %3, align 8, !tbaa !3
  %53 = getelementptr inbounds nuw %struct._lv_vector_path_t, ptr %52, i32 0, i32 2
  %54 = load ptr, ptr %4, align 8, !tbaa !3
  %55 = call i32 @lv_array_push_back(ptr noundef %53, ptr noundef %54)
  call void @llvm.lifetime.end.p0(i64 4, ptr %5) #7
  br label %56

56:                                               ; preds = %48, %9
  ret void
}