; Function Attrs: nounwind uwtable
define void @lv_vector_path_line_to(ptr noundef %0, ptr noundef %1) local_unnamed_addr #3 {
  %3 = alloca i32, align 4
  %4 = getelementptr inbounds nuw i8, ptr %0, i64 8
  %5 = tail call zeroext i1 @lv_array_is_empty(ptr noundef nonnull %4) #9
  br i1 %5, label %30, label %6

6:                                                ; preds = %2
  %7 = tail call i32 @lv_array_size(ptr noundef nonnull %4) #9
  %8 = add i32 %7, 1
  %9 = tail call i32 @lv_array_capacity(ptr noundef nonnull %4) #9
  %10 = icmp ugt i32 %8, %9
  br i1 %10, label %11, label %16

11:                                               ; preds = %6
  %12 = getelementptr inbounds nuw i8, ptr %0, i64 20
  %13 = load i32, ptr %12, align 4, !tbaa !18
  %14 = shl i32 %13, 1
  %15 = tail call zeroext i1 @lv_array_resize(ptr noundef nonnull %4, i32 noundef %14) #9
  br label %16

16:                                               ; preds = %11, %6
  %17 = getelementptr inbounds nuw i8, ptr %0, i64 32
  %18 = tail call i32 @lv_array_size(ptr noundef nonnull %17) #9
  %19 = add i32 %18, 1
  %20 = tail call i32 @lv_array_capacity(ptr noundef nonnull %17) #9
  %21 = icmp ugt i32 %19, %20
  br i1 %21, label %22, label %27

22:                                               ; preds = %16
  %23 = getelementptr inbounds nuw i8, ptr %0, i64 44
  %24 = load i32, ptr %23, align 4, !tbaa !19
  %25 = shl i32 %24, 1
  %26 = tail call zeroext i1 @lv_array_resize(ptr noundef nonnull %17, i32 noundef %25) #9
  br label %27

27:                                               ; preds = %16, %22
  call void @llvm.lifetime.start.p0(i64 4, ptr nonnull %3) #9
  store i32 1, ptr %3, align 4, !tbaa !20
  %28 = call i32 @lv_array_push_back(ptr noundef nonnull %4, ptr noundef nonnull %3) #9
  %29 = call i32 @lv_array_push_back(ptr noundef nonnull %17, ptr noundef %1) #9
  call void @llvm.lifetime.end.p0(i64 4, ptr nonnull %3) #9
  br label %30

30:                                               ; preds = %2, %27
  ret void
}